target datalayout = "e-m:e-p270:32:32-p271:32:32-p272:64:64-i64:64-i128:128-f80:128-n8:16:32:64-S128"
target triple = "x86_64-pc-linux-gnu"

%struct._zend_executor_globals = type { %struct._zval_struct, %struct._zval_struct, [32 x ptr], ptr, ptr, %struct._zend_array, %struct._zend_array, ptr, i32, i32, ptr, ptr, ptr, ptr, ptr, ptr, i64, ptr, ptr, i32, i32, i64, i32, i32, i32, i8, i8, %struct.zend_atomic_bool_s, %struct.zend_atomic_bool_s, ptr, i64, ptr, ptr, %struct._zend_array, %struct._zend_array, i32, i8, %struct._zval_struct, %struct._zval_struct, %struct._zend_stack, %struct._zend_stack, %struct._zend_stack, ptr, i32, i32, i64, ptr, ptr, ptr, %struct._zend_objects_store, ptr, ptr, ptr, [3 x %struct._zend_op], ptr, i8, i8, i64, i32, i32, ptr, [16 x %struct._HashTableIterator], ptr, %union._zend_function, %struct._zend_op, %struct._zend_array, i64, %struct.zend_get_gc_buffer, ptr, ptr, ptr, i64, i8, i32, ptr, ptr, i64, %struct._zend_call_stack, i64, i64, [6 x ptr] }
%struct.zend_atomic_bool_s = type { i8 }
%struct._zval_struct = type { %union._zend_value, %union.anon, %union.anon.2 }
%union._zend_value = type { i64 }
%union.anon = type { i32 }
%union.anon.2 = type { i32 }
%struct._zend_stack = type { i32, i32, i32, ptr }
%struct._zend_objects_store = type { ptr, i32, i32, i32 }
%struct._HashTableIterator = type { ptr, i32, i32 }
%union._zend_function = type { %struct._zend_op_array }
%struct._zend_op_array = type { i8, [3 x i8], i32, ptr, ptr, ptr, i32, i32, ptr, ptr, ptr, ptr, i32, i32, i32, i32, ptr, ptr, ptr, ptr, ptr, i32, i32, ptr, ptr, ptr, i32, i32, i32, i32, ptr, ptr, [6 x ptr] }
%struct._zend_op = type { ptr, %union._znode_op, %union._znode_op, %union._znode_op, i32, i32, i8, i8, i8, i8 }
%union._znode_op = type { i32 }
%struct._zend_array = type { %struct._zend_refcounted_h, %union.anon.4, i32, %union.anon.6, i32, i32, i32, i32, i64, ptr }
%struct._zend_refcounted_h = type { i32, %union.anon.3 }
%union.anon.3 = type { i32 }
%union.anon.4 = type { i32 }
%union.anon.6 = type { ptr }
%struct.zend_get_gc_buffer = type { ptr, ptr, ptr }
%struct._zend_call_stack = type { ptr, i64 }
%struct._spl_fixedarray_object = type { %struct._spl_fixedarray, ptr, %struct._zend_object }
%struct._spl_fixedarray = type { i64, ptr, i64 }
%struct._zend_object = type { %struct._zend_refcounted_h, i32, ptr, ptr, ptr, [1 x %struct._zval_struct] }
%struct.anon.0 = type { i8, i8, %union.anon.1 }
%union.anon.1 = type { i16 }
%struct._zend_reference = type { %struct._zend_refcounted_h, %struct._zval_struct, %union.zend_property_info_source_list }
%union.zend_property_info_source_list = type { ptr }

@executor_globals = external global %struct._zend_executor_globals, align 8
@.str.9 = private unnamed_addr constant [44 x i8] c"[] operator not supported for SplFixedArray\00", align 1
@spl_ce_OutOfBoundsException = external global ptr, align 8
@.str.10 = private unnamed_addr constant [30 x i8] c"Index invalid or out of range\00", align 1

; Function Attrs: nounwind uwtable
define internal void @spl_fixedarray_object_write_dimension_helper(ptr noundef %0, ptr noundef %1, ptr noundef %2) #0 {
  %4 = alloca ptr, align 8
  %5 = alloca ptr, align 8
  %6 = alloca ptr, align 8
  %7 = alloca ptr, align 8
  %8 = alloca ptr, align 8
  %9 = alloca ptr, align 8
  %10 = alloca ptr, align 8
  %11 = alloca i64, align 8
  %12 = alloca ptr, align 8
  %13 = alloca %struct._zval_struct, align 8
  %14 = alloca ptr, align 8
  %15 = alloca ptr, align 8
  %16 = alloca ptr, align 8
  %17 = alloca i32, align 4
  %18 = alloca ptr, align 8
  %19 = alloca ptr, align 8
  %20 = alloca ptr, align 8
  %21 = alloca ptr, align 8
  %22 = alloca i32, align 4
  store ptr %0, ptr %8, align 8
  store ptr %1, ptr %9, align 8
  store ptr %2, ptr %10, align 8
  %23 = load ptr, ptr %9, align 8
  %24 = icmp ne ptr %23, null
  br i1 %24, label %26, label %25

25:                                               ; preds = %3
  call void (ptr, ptr, ...) @zend_throw_error(ptr noundef null, ptr noundef @.str.9)
  br label %145

26:                                               ; preds = %3
  %27 = load ptr, ptr %9, align 8
  %28 = call i64 @spl_offset_convert_to_long(ptr noundef %27)
  store i64 %28, ptr %11, align 8
  %29 = load ptr, ptr getelementptr inbounds (%struct._zend_executor_globals, ptr @executor_globals, i32 0, i32 50), align 8
  %30 = icmp ne ptr %29, null
  br i1 %30, label %31, label %32

31:                                               ; preds = %26
  br label %145

32:                                               ; preds = %26
  %33 = load i64, ptr %11, align 8
  %34 = icmp slt i64 %33, 0
  br i1 %34, label %42, label %35

35:                                               ; preds = %32
  %36 = load i64, ptr %11, align 8
  %37 = load ptr, ptr %8, align 8
  %38 = getelementptr inbounds %struct._spl_fixedarray_object, ptr %37, i32 0, i32 0
  %39 = getelementptr inbounds %struct._spl_fixedarray, ptr %38, i32 0, i32 0
  %40 = load i64, ptr %39, align 8
  %41 = icmp sge i64 %36, %40
  br i1 %41, label %42, label %45

42:                                               ; preds = %35, %32
  %43 = load ptr, ptr @spl_ce_OutOfBoundsException, align 8
  %44 = call ptr @zend_throw_exception(ptr noundef %43, ptr noundef @.str.10, i64 noundef 0)
  br label %145

45:                                               ; preds = %35
  %46 = load ptr, ptr %8, align 8
  %47 = getelementptr inbounds %struct._spl_fixedarray_object, ptr %46, i32 0, i32 0
  %48 = getelementptr inbounds %struct._spl_fixedarray, ptr %47, i32 0, i32 1
  %49 = load ptr, ptr %48, align 8
  %50 = load i64, ptr %11, align 8
  %51 = getelementptr inbounds %struct._zval_struct, ptr %49, i64 %50
  store ptr %51, ptr %12, align 8
  br label %52

52:                                               ; preds = %45
  store ptr %13, ptr %14, align 8
  %53 = load ptr, ptr %12, align 8
  store ptr %53, ptr %15, align 8
  %54 = load ptr, ptr %15, align 8
  %55 = getelementptr inbounds %struct._zval_struct, ptr %54, i32 0, i32 0
  %56 = load ptr, ptr %55, align 8
  store ptr %56, ptr %16, align 8
  %57 = load ptr, ptr %15, align 8
  %58 = getelementptr inbounds %struct._zval_struct, ptr %57, i32 0, i32 1
  %59 = load i32, ptr %58, align 8
  store i32 %59, ptr %17, align 4
  br label %60

60:                                               ; preds = %52
  %61 = load ptr, ptr %16, align 8
  %62 = load ptr, ptr %14, align 8
  %63 = getelementptr inbounds %struct._zval_struct, ptr %62, i32 0, i32 0
  store ptr %61, ptr %63, align 8
  %64 = load i32, ptr %17, align 4
  %65 = load ptr, ptr %14, align 8
  %66 = getelementptr inbounds %struct._zval_struct, ptr %65, i32 0, i32 1
  store i32 %64, ptr %66, align 8
  br label %67

67:                                               ; preds = %60
  br label %68

68:                                               ; preds = %67
  br label %69

69:                                               ; preds = %68
  %70 = load ptr, ptr %10, align 8
  store ptr %70, ptr %18, align 8
  %71 = load ptr, ptr %18, align 8
  %72 = getelementptr inbounds %struct._zval_struct, ptr %71, i32 0, i32 1
  %73 = load i32, ptr %72, align 8
  %74 = and i32 %73, 65280
  %75 = icmp ne i32 %74, 0
  br i1 %75, label %76, label %125

76:                                               ; preds = %69
  %77 = load ptr, ptr %18, align 8
  %78 = getelementptr inbounds %struct._zval_struct, ptr %77, i32 0, i32 1
  %79 = load i32, ptr %78, align 8
  %80 = and i32 %79, 255
  %81 = icmp eq i32 %80, 10
  %82 = xor i1 %81, true
  %83 = xor i1 %82, true
  %84 = zext i1 %83 to i32
  %85 = sext i32 %84 to i64
  %86 = icmp ne i64 %85, 0
  br i1 %86, label %87, label %111

87:                                               ; preds = %76
  %88 = load ptr, ptr %18, align 8
  %89 = getelementptr inbounds %struct._zval_struct, ptr %88, i32 0, i32 0
  %90 = load ptr, ptr %89, align 8
  %91 = getelementptr inbounds %struct._zend_reference, ptr %90, i32 0, i32 1
  store ptr %91, ptr %18, align 8
  %92 = load ptr, ptr %18, align 8
  %93 = getelementptr inbounds %struct._zval_struct, ptr %92, i32 0, i32 1
  %94 = load i32, ptr %93, align 8
  %95 = and i32 %94, 65280
  %96 = icmp ne i32 %95, 0
  br i1 %96, label %97, label %110

97:                                               ; preds = %87
  %98 = load ptr, ptr %18, align 8
  store ptr %98, ptr %5, align 8
  %99 = load ptr, ptr %5, align 8
  %100 = getelementptr inbounds %struct._zval_struct, ptr %99, i32 0, i32 1
  %101 = getelementptr inbounds %struct.anon.0, ptr %100, i32 0, i32 1
  %102 = load i8, ptr %101, align 1
  %103 = zext i8 %102 to i32
  %104 = icmp ne i32 %103, 0
  call void @llvm.assume(i1 %104)
  %105 = load ptr, ptr %5, align 8
  %106 = load ptr, ptr %105, align 8
  store ptr %106, ptr %4, align 8
  %107 = load ptr, ptr %4, align 8
  %108 = load i32, ptr %107, align 4
  %109 = add i32 %108, 1
  store i32 %109, ptr %107, align 4
  br label %110

110:                                              ; preds = %97, %87
  br label %124

111:                                              ; preds = %76
  %112 = load ptr, ptr %18, align 8
  store ptr %112, ptr %7, align 8
  %113 = load ptr, ptr %7, align 8
  %114 = getelementptr inbounds %struct._zval_struct, ptr %113, i32 0, i32 1
  %115 = getelementptr inbounds %struct.anon.0, ptr %114, i32 0, i32 1
  %116 = load i8, ptr %115, align 1
  %117 = zext i8 %116 to i32
  %118 = icmp ne i32 %117, 0
  call void @llvm.assume(i1 %118)
  %119 = load ptr, ptr %7, align 8
  %120 = load ptr, ptr %119, align 8
  store ptr %120, ptr %6, align 8
  %121 = load ptr, ptr %6, align 8
  %122 = load i32, ptr %121, align 4
  %123 = add i32 %122, 1
  store i32 %123, ptr %121, align 4
  br label %124

124:                                              ; preds = %111, %110
  br label %125

125:                                              ; preds = %124, %69
  br label %126

126:                                              ; preds = %125
  %127 = load ptr, ptr %12, align 8
  store ptr %127, ptr %19, align 8
  %128 = load ptr, ptr %18, align 8
  store ptr %128, ptr %20, align 8
  %129 = load ptr, ptr %20, align 8
  %130 = getelementptr inbounds %struct._zval_struct, ptr %129, i32 0, i32 0
  %131 = load ptr, ptr %130, align 8
  store ptr %131, ptr %21, align 8
  %132 = load ptr, ptr %20, align 8
  %133 = getelementptr inbounds %struct._zval_struct, ptr %132, i32 0, i32 1
  %134 = load i32, ptr %133, align 8
  store i32 %134, ptr %22, align 4
  br label %135

135:                                              ; preds = %126
  %136 = load ptr, ptr %21, align 8
  %137 = load ptr, ptr %19, align 8
  %138 = getelementptr inbounds %struct._zval_struct, ptr %137, i32 0, i32 0
  store ptr %136, ptr %138, align 8
  %139 = load i32, ptr %22, align 4
  %140 = load ptr, ptr %19, align 8
  %141 = getelementptr inbounds %struct._zval_struct, ptr %140, i32 0, i32 1
  store i32 %139, ptr %141, align 8
  br label %142

142:                                              ; preds = %135
  br label %143

143:                                              ; preds = %142
  br label %144

144:                                              ; preds = %143
  call void @zval_ptr_dtor(ptr noundef %13)
  br label %145

145:                                              ; preds = %144, %42, %31, %25
  ret void
}