; Function Attrs: nounwind uwtable
define internal fastcc void @spl_fixedarray_object_write_dimension_helper(ptr nocapture noundef readonly %0, ptr noundef %1, ptr nocapture noundef readonly %2) unnamed_addr #0 {
  %4 = alloca %struct._zval_struct, align 8
  %.not = icmp eq ptr %1, null
  br i1 %.not, label %5, label %6

5:                                                ; preds = %3
  tail call void (ptr, ptr, ...) @zend_throw_error(ptr noundef null, ptr noundef nonnull @.str.9) #12
  br label %45

6:                                                ; preds = %3
  %7 = tail call fastcc i64 @spl_offset_convert_to_long(ptr noundef nonnull %1)
  %8 = load ptr, ptr getelementptr inbounds (%struct._zend_executor_globals, ptr @executor_globals, i64 0, i32 50), align 8
  %.not36 = icmp eq ptr %8, null
  br i1 %.not36, label %9, label %45

9:                                                ; preds = %6
  %10 = icmp slt i64 %7, 0
  br i1 %10, label %13, label %11

11:                                               ; preds = %9
  %12 = load i64, ptr %0, align 8
  %.not37 = icmp slt i64 %7, %12
  br i1 %.not37, label %16, label %13

13:                                               ; preds = %11, %9
  %14 = load ptr, ptr @spl_ce_OutOfBoundsException, align 8
  %15 = tail call ptr @zend_throw_exception(ptr noundef %14, ptr noundef nonnull @.str.10, i64 noundef 0) #12
  br label %45

16:                                               ; preds = %11
  %17 = getelementptr inbounds i8, ptr %0, i64 8
  %18 = load ptr, ptr %17, align 8
  %19 = getelementptr inbounds %struct._zval_struct, ptr %18, i64 %7
  %20 = load ptr, ptr %19, align 8
  %21 = getelementptr inbounds i8, ptr %19, i64 8
  %22 = load i32, ptr %21, align 8
  store ptr %20, ptr %4, align 8
  %23 = getelementptr inbounds i8, ptr %4, i64 8
  store i32 %22, ptr %23, align 8
  %24 = getelementptr inbounds i8, ptr %2, i64 8
  %25 = load i32, ptr %24, align 8
  %26 = and i32 %25, 65280
  %.not38 = icmp eq i32 %26, 0
  br i1 %.not38, label %41, label %27

27:                                               ; preds = %16
  %28 = and i32 %25, 255
  %29 = icmp eq i32 %28, 10
  br i1 %29, label %30, label %.sink.split

30:                                               ; preds = %27
  %31 = load ptr, ptr %2, align 8
  %32 = getelementptr inbounds i8, ptr %31, i64 8
  %33 = getelementptr inbounds i8, ptr %31, i64 16
  %34 = load i32, ptr %33, align 8
  %35 = and i32 %34, 65280
  %.not39 = icmp eq i32 %35, 0
  br i1 %.not39, label %41, label %.sink.split

.sink.split:                                      ; preds = %27, %30
  %.sink = phi i32 [ %34, %30 ], [ %25, %27 ]
  %.sink42 = phi ptr [ %32, %30 ], [ %2, %27 ]
  %36 = and i32 %.sink, 65280
  %37 = icmp ne i32 %36, 0
  tail call void @llvm.assume(i1 %37)
  %38 = load ptr, ptr %.sink42, align 8
  %39 = load i32, ptr %38, align 4
  %40 = add i32 %39, 1
  store i32 %40, ptr %38, align 4
  br label %41

41:                                               ; preds = %.sink.split, %16, %30
  %.0 = phi ptr [ %32, %30 ], [ %2, %16 ], [ %.sink42, %.sink.split ]
  %42 = load ptr, ptr %.0, align 8
  %43 = getelementptr inbounds i8, ptr %.0, i64 8
  %44 = load i32, ptr %43, align 8
  store ptr %42, ptr %19, align 8
  store i32 %44, ptr %21, align 8
  call void @zval_ptr_dtor(ptr noundef nonnull %4) #12
  br label %45

45:                                               ; preds = %6, %41, %13, %5
  ret void
}